; Function Attrs: mustprogress nounwind uwtable
define internal fastcc void @_ZN12_GLOBAL__N_111StmtPrinter15VisitNoInitExprEPN5clang10NoInitExprE(ptr %.0.val) unnamed_addr #0 align 2 {
  %1 = getelementptr inbounds nuw i8, ptr %.0.val, i64 24
  %2 = load ptr, ptr %1, align 8
  %3 = getelementptr inbounds nuw i8, ptr %.0.val, i64 32
  %4 = load ptr, ptr %3, align 8
  %5 = ptrtoint ptr %2 to i64
  %6 = ptrtoint ptr %4 to i64
  %7 = sub i64 %5, %6
  %8 = icmp ult i64 %7, 11
  br i1 %8, label %9, label %11

9:                                                ; preds = %0
  %10 = tail call noundef nonnull align 8 dereferenceable(48) ptr @_ZN4llvm11raw_ostream5writeEPKcm(ptr noundef nonnull align 8 dereferenceable(48) %.0.val, ptr noundef nonnull @.str.72, i64 noundef 11) #19
  br label %_ZN4llvm11raw_ostreamlsEPKc.exit

11:                                               ; preds = %0
  tail call void @llvm.memcpy.p0.p0.i64(ptr noundef nonnull align 1 dereferenceable(11) %4, ptr noundef nonnull align 1 dereferenceable(11) @.str.72, i64 11, i1 false)
  %12 = load ptr, ptr %3, align 8
  %13 = getelementptr inbounds nuw i8, ptr %12, i64 11
  store ptr %13, ptr %3, align 8
  br label %_ZN4llvm11raw_ostreamlsEPKc.exit

_ZN4llvm11raw_ostreamlsEPKc.exit:                 ; preds = %9, %11
  ret void
}